; ModuleID = '22/378.c'
source_filename = "22/378.c"
target datalayout = "e-m:e-p270:32:32-p271:32:32-p272:64:64-i64:64-f80:128-n8:16:32:64-S128"
target triple = "x86_64-pc-linux-gnu"

@.str = private unnamed_addr constant [3 x i8] c"%s\00", align 1
@.str.1 = private unnamed_addr constant [4 x i8] c"No\0A\00", align 1
@.str.2 = private unnamed_addr constant [4 x i8] c"%d\0A\00", align 1

; Function Attrs: noinline nounwind uwtable
define dso_local i32 @main() #0 {
  %1 = alloca i32, align 4
  %2 = alloca i32, align 4
  %3 = alloca i32, align 4
  %4 = alloca i32, align 4
  %5 = alloca i32, align 4
  %6 = alloca i32, align 4
  %7 = alloca [300 x i32], align 16
  %8 = alloca [1000 x i8], align 16
  store i32 0, i32* %1, align 4
  store i32 0, i32* %3, align 4
  store i32 0, i32* %5, align 4
  %9 = bitcast [300 x i32]* %7 to i8*
  call void @llvm.memset.p0i8.i64(i8* align 16 %9, i8 0, i64 1200, i1 false)
  %10 = getelementptr inbounds [1000 x i8], [1000 x i8]* %8, i64 0, i64 0
  %11 = call i32 (i8*, ...) @__isoc99_scanf(i8* getelementptr inbounds ([3 x i8], [3 x i8]* @.str, i64 0, i64 0), i8* %10)
  %12 = getelementptr inbounds [1000 x i8], [1000 x i8]* %8, i64 0, i64 0
  %13 = call i64 @strlen(i8* %12) #4
  %14 = trunc i64 %13 to i32
  store i32 %14, i32* %6, align 4
  store i32 0, i32* %4, align 4
  br label %15

15:                                               ; preds = %46, %0
  %16 = load i32, i32* %4, align 4
  %17 = load i32, i32* %6, align 4
  %18 = icmp slt i32 %16, %17
  br i1 %18, label %19, label %49

19:                                               ; preds = %15
  %20 = load i32, i32* %4, align 4
  %21 = sext i32 %20 to i64
  %22 = getelementptr inbounds [1000 x i8], [1000 x i8]* %8, i64 0, i64 %21
  %23 = load i8, i8* %22, align 1
  %24 = sext i8 %23 to i32
  %25 = icmp ne i32 %24, 44
  br i1 %25, label %26, label %42

26:                                               ; preds = %19
  %27 = load i32, i32* %5, align 4
  %28 = sext i32 %27 to i64
  %29 = getelementptr inbounds [300 x i32], [300 x i32]* %7, i64 0, i64 %28
  %30 = load i32, i32* %29, align 4
  %31 = mul nsw i32 %30, 10
  %32 = load i32, i32* %4, align 4
  %33 = sext i32 %32 to i64
  %34 = getelementptr inbounds [1000 x i8], [1000 x i8]* %8, i64 0, i64 %33
  %35 = load i8, i8* %34, align 1
  %36 = sext i8 %35 to i32
  %37 = add nsw i32 %31, %36
  %38 = sub nsw i32 %37, 48
  %39 = load i32, i32* %5, align 4
  %40 = sext i32 %39 to i64
  %41 = getelementptr inbounds [300 x i32], [300 x i32]* %7, i64 0, i64 %40
  store i32 %38, i32* %41, align 4
  br label %45

42:                                               ; preds = %19
  %43 = load i32, i32* %5, align 4
  %44 = add nsw i32 %43, 1
  store i32 %44, i32* %5, align 4
  br label %45

45:                                               ; preds = %42, %26
  br label %46

46:                                               ; preds = %45
  %47 = load i32, i32* %4, align 4
  %48 = add nsw i32 %47, 1
  store i32 %48, i32* %4, align 4
  br label %15

49:                                               ; preds = %15
  %50 = load i32, i32* %5, align 4
  %51 = icmp eq i32 %50, 0
  br i1 %51, label %52, label %54

52:                                               ; preds = %49
  %53 = call i32 (i8*, ...) @printf(i8* getelementptr inbounds ([4 x i8], [4 x i8]* @.str.1, i64 0, i64 0))
  br label %132

54:                                               ; preds = %49
  store i32 0, i32* %4, align 4
  br label %55

55:                                               ; preds = %98, %54
  %56 = load i32, i32* %4, align 4
  %57 = load i32, i32* %5, align 4
  %58 = icmp sle i32 %56, %57
  br i1 %58, label %59, label %101

59:                                               ; preds = %55
  store i32 0, i32* %3, align 4
  br label %60

60:                                               ; preds = %94, %59
  %61 = load i32, i32* %3, align 4
  %62 = load i32, i32* %5, align 4
  %63 = icmp slt i32 %61, %62
  br i1 %63, label %64, label %97

64:                                               ; preds = %60
  %65 = load i32, i32* %3, align 4
  %66 = sext i32 %65 to i64
  %67 = getelementptr inbounds [300 x i32], [300 x i32]* %7, i64 0, i64 %66
  %68 = load i32, i32* %67, align 4
  %69 = load i32, i32* %3, align 4
  %70 = add nsw i32 %69, 1
  %71 = sext i32 %70 to i64
  %72 = getelementptr inbounds [300 x i32], [300 x i32]* %7, i64 0, i64 %71
  %73 = load i32, i32* %72, align 4
  %74 = icmp slt i32 %68, %73
  br i1 %74, label %75, label %93

75:                                               ; preds = %64
  %76 = load i32, i32* %3, align 4
  %77 = sext i32 %76 to i64
  %78 = getelementptr inbounds [300 x i32], [300 x i32]* %7, i64 0, i64 %77
  %79 = load i32, i32* %78, align 4
  store i32 %79, i32* %2, align 4
  %80 = load i32, i32* %3, align 4
  %81 = add nsw i32 %80, 1
  %82 = sext i32 %81 to i64
  %83 = getelementptr inbounds [300 x i32], [300 x i32]* %7, i64 0, i64 %82
  %84 = load i32, i32* %83, align 4
  %85 = load i32, i32* %3, align 4
  %86 = sext i32 %85 to i64
  %87 = getelementptr inbounds [300 x i32], [300 x i32]* %7, i64 0, i64 %86
  store i32 %84, i32* %87, align 4
  %88 = load i32, i32* %2, align 4
  %89 = load i32, i32* %3, align 4
  %90 = add nsw i32 %89, 1
  %91 = sext i32 %90 to i64
  %92 = getelementptr inbounds [300 x i32], [300 x i32]* %7, i64 0, i64 %91
  store i32 %88, i32* %92, align 4
  br label %93

93:                                               ; preds = %75, %64
  br label %94

94:                                               ; preds = %93
  %95 = load i32, i32* %3, align 4
  %96 = add nsw i32 %95, 1
  store i32 %96, i32* %3, align 4
  br label %60

97:                                               ; preds = %60
  br label %98

98:                                               ; preds = %97
  %99 = load i32, i32* %4, align 4
  %100 = add nsw i32 %99, 1
  store i32 %100, i32* %4, align 4
  br label %55

101:                                              ; preds = %55
  store i32 0, i32* %4, align 4
  br label %102

102:                                              ; preds = %128, %101
  %103 = load i32, i32* %4, align 4
  %104 = load i32, i32* %5, align 4
  %105 = icmp sle i32 %103, %104
  br i1 %105, label %106, label %131

106:                                              ; preds = %102
  %107 = load i32, i32* %4, align 4
  %108 = sext i32 %107 to i64
  %109 = getelementptr inbounds [300 x i32], [300 x i32]* %7, i64 0, i64 %108
  %110 = load i32, i32* %109, align 4
  %111 = getelementptr inbounds [300 x i32], [300 x i32]* %7, i64 0, i64 0
  %112 = load i32, i32* %111, align 16
  %113 = icmp ne i32 %110, %112
  br i1 %113, label %114, label %120

114:                                              ; preds = %106
  %115 = load i32, i32* %4, align 4
  %116 = sext i32 %115 to i64
  %117 = getelementptr inbounds [300 x i32], [300 x i32]* %7, i64 0, i64 %116
  %118 = load i32, i32* %117, align 4
  %119 = call i32 (i8*, ...) @printf(i8* getelementptr inbounds ([4 x i8], [4 x i8]* @.str.2, i64 0, i64 0), i32 %118)
  br label %131

120:                                              ; preds = %106
  %121 = load i32, i32* %4, align 4
  %122 = load i32, i32* %5, align 4
  %123 = icmp eq i32 %121, %122
  br i1 %123, label %124, label %126

124:                                              ; preds = %120
  %125 = call i32 (i8*, ...) @printf(i8* getelementptr inbounds ([4 x i8], [4 x i8]* @.str.1, i64 0, i64 0))
  br label %126

126:                                              ; preds = %124, %120
  br label %127

127:                                              ; preds = %126
  br label %128

128:                                              ; preds = %127
  %129 = load i32, i32* %4, align 4
  %130 = add nsw i32 %129, 1
  store i32 %130, i32* %4, align 4
  br label %102

131:                                              ; preds = %114, %102
  br label %132

132:                                              ; preds = %131, %52
  %133 = load i32, i32* %1, align 4
  ret i32 %133
}

; Function Attrs: argmemonly nounwind willreturn
declare void @llvm.memset.p0i8.i64(i8* nocapture writeonly, i8, i64, i1 immarg) #1

declare dso_local i32 @__isoc99_scanf(i8*, ...) #2

; Function Attrs: nounwind readonly
declare dso_local i64 @strlen(i8*) #3

declare dso_local i32 @printf(i8*, ...) #2


!llvm.module.flags = !{!0}
!llvm.ident = !{!1}

!0 = !{i32 1, !"wchar_size", i32 4}
!1 = !{!"clang version 10.0.0-4ubuntu1 "}
